; ModuleID = '11/744.c'
source_filename = "11/744.c"
target datalayout = "e-m:e-p270:32:32-p271:32:32-p272:64:64-i64:64-f80:128-n8:16:32:64-S128"
target triple = "x86_64-pc-linux-gnu"

@.str = private unnamed_addr constant [9 x i8] c"%d %d %d\00", align 1
@.str.1 = private unnamed_addr constant [3 x i8] c"%d\00", align 1

; Function Attrs: noinline nounwind uwtable
define dso_local i32 @main() #0 {
  %1 = alloca i32, align 4
  %2 = alloca i32, align 4
  %3 = alloca i32, align 4
  %4 = alloca i32, align 4
  %5 = alloca i32, align 4
  %6 = alloca i32, align 4
  store i32 0, i32* %1, align 4
  store i32 0, i32* %4, align 4
  store i32 0, i32* %5, align 4
  store i32 0, i32* %6, align 4
  %7 = call i32 (i8*, ...) @__isoc99_scanf(i8* getelementptr inbounds ([9 x i8], [9 x i8]* @.str, i64 0, i64 0), i32* %2, i32* %3, i32* %4)
  store i32 1, i32* %5, align 4
  br label %8

8:                                                ; preds = %74, %0
  %9 = load i32, i32* %5, align 4
  %10 = load i32, i32* %3, align 4
  %11 = icmp slt i32 %9, %10
  br i1 %11, label %12, label %77

12:                                               ; preds = %8
  %13 = load i32, i32* %6, align 4
  %14 = add nsw i32 %13, 30
  store i32 %14, i32* %6, align 4
  %15 = load i32, i32* %5, align 4
  %16 = icmp eq i32 %15, 1
  br i1 %16, label %32, label %17

17:                                               ; preds = %12
  %18 = load i32, i32* %5, align 4
  %19 = icmp eq i32 %18, 3
  br i1 %19, label %32, label %20

20:                                               ; preds = %17
  %21 = load i32, i32* %5, align 4
  %22 = icmp eq i32 %21, 5
  br i1 %22, label %32, label %23

23:                                               ; preds = %20
  %24 = load i32, i32* %5, align 4
  %25 = icmp eq i32 %24, 7
  br i1 %25, label %32, label %26

26:                                               ; preds = %23
  %27 = load i32, i32* %5, align 4
  %28 = icmp eq i32 %27, 8
  br i1 %28, label %32, label %29

29:                                               ; preds = %26
  %30 = load i32, i32* %5, align 4
  %31 = icmp eq i32 %30, 10
  br i1 %31, label %32, label %35

32:                                               ; preds = %29, %26, %23, %20, %17, %12
  %33 = load i32, i32* %6, align 4
  %34 = add nsw i32 %33, 1
  store i32 %34, i32* %6, align 4
  br label %73

35:                                               ; preds = %29
  %36 = load i32, i32* %5, align 4
  %37 = icmp eq i32 %36, 2
  br i1 %37, label %38, label %53

38:                                               ; preds = %35
  %39 = load i32, i32* %2, align 4
  %40 = srem i32 %39, 100
  %41 = icmp ne i32 %40, 0
  br i1 %41, label %42, label %46

42:                                               ; preds = %38
  %43 = load i32, i32* %2, align 4
  %44 = srem i32 %43, 4
  %45 = icmp eq i32 %44, 0
  br i1 %45, label %50, label %46

46:                                               ; preds = %42, %38
  %47 = load i32, i32* %2, align 4
  %48 = srem i32 %47, 400
  %49 = icmp eq i32 %48, 0
  br i1 %49, label %50, label %53

50:                                               ; preds = %46, %42
  %51 = load i32, i32* %6, align 4
  %52 = sub nsw i32 %51, 1
  store i32 %52, i32* %6, align 4
  br label %72

53:                                               ; preds = %46, %35
  %54 = load i32, i32* %5, align 4
  %55 = icmp eq i32 %54, 2
  br i1 %55, label %56, label %71

56:                                               ; preds = %53
  %57 = load i32, i32* %2, align 4
  %58 = srem i32 %57, 4
  %59 = icmp ne i32 %58, 0
  br i1 %59, label %68, label %60

60:                                               ; preds = %56
  %61 = load i32, i32* %2, align 4
  %62 = srem i32 %61, 100
  %63 = icmp eq i32 %62, 0
  br i1 %63, label %64, label %71

64:                                               ; preds = %60
  %65 = load i32, i32* %2, align 4
  %66 = srem i32 %65, 400
  %67 = icmp ne i32 %66, 0
  br i1 %67, label %68, label %71

68:                                               ; preds = %64, %56
  %69 = load i32, i32* %6, align 4
  %70 = sub nsw i32 %69, 2
  store i32 %70, i32* %6, align 4
  br label %71

71:                                               ; preds = %68, %64, %60, %53
  br label %72

72:                                               ; preds = %71, %50
  br label %73

73:                                               ; preds = %72, %32
  br label %74

74:                                               ; preds = %73
  %75 = load i32, i32* %5, align 4
  %76 = add nsw i32 %75, 1
  store i32 %76, i32* %5, align 4
  br label %8

77:                                               ; preds = %8
  %78 = load i32, i32* %6, align 4
  %79 = load i32, i32* %4, align 4
  %80 = add nsw i32 %78, %79
  %81 = call i32 (i8*, ...) @printf(i8* getelementptr inbounds ([3 x i8], [3 x i8]* @.str.1, i64 0, i64 0), i32 %80)
  ret i32 0
}

declare dso_local i32 @__isoc99_scanf(i8*, ...) #1

declare dso_local i32 @printf(i8*, ...) #1


!llvm.module.flags = !{!0}
!llvm.ident = !{!1}

!0 = !{i32 1, !"wchar_size", i32 4}
!1 = !{!"clang version 10.0.0-4ubuntu1 "}
